target datalayout = "e-m:e-p270:32:32-p271:32:32-p272:64:64-i64:64-i128:128-f80:128-n8:16:32:64-S128"
target triple = "x86_64-pc-linux-gnu"

%struct.expert_field = type { i32, i32 }

@hf_at_number = internal global i32 0, align 4
@hf_at_type = internal global i32 0, align 4
@hf_at_alpha = internal global i32 0, align 4
@hf_at_priority = internal global i32 0, align 4
@hf_clcc_id = internal global i32 0, align 4
@hf_clcc_dir = internal global i32 0, align 4
@hf_clcc_stat = internal global i32 0, align 4
@hf_clcc_mode = internal global i32 0, align 4
@hf_clcc_mpty = internal global i32 0, align 4
@ei_at_type = internal global %struct.expert_field zeroinitializer, align 4

; Function Attrs: alwaysinline nounwind
define internal ptr @memcpy.inline(ptr noalias %0, ptr noalias %1, i64 %2) #5 {
  %4 = alloca ptr, align 8
  %5 = alloca ptr, align 8
  %6 = alloca i64, align 8
  store ptr %0, ptr %4, align 8
  store ptr %1, ptr %5, align 8
  store i64 %2, ptr %6, align 8
  %7 = load ptr, ptr %4, align 8
  %8 = load ptr, ptr %5, align 8
  %9 = load i64, ptr %6, align 8
  %10 = load ptr, ptr %4, align 8
  %11 = call i64 @llvm.objectsize.i64.p0(ptr %10, i1 false, i1 true, i1 true)
  %12 = call ptr @__memcpy_chk(ptr noundef %7, ptr noundef %8, i64 noundef %9, i64 noundef %11) #11
  ret ptr %12
}

; Function Attrs: null_pointer_is_valid sspstrong uwtable
define internal i32 @get_uint_parameter(ptr noundef %0, i32 noundef %1) #0 {
  %3 = alloca ptr, align 8
  %4 = alloca i32, align 4
  %5 = alloca i32, align 4
  %6 = alloca ptr, align 8
  store ptr %0, ptr %3, align 8
  store i32 %1, ptr %4, align 4
  call void @llvm.lifetime.start.p0(i64 4, ptr %5) #11
  call void @llvm.lifetime.start.p0(i64 8, ptr %6) #11
  %7 = call ptr @wmem_packet_scope()
  %8 = load i32, ptr %4, align 4
  %9 = add i32 %8, 1
  %10 = sext i32 %9 to i64
  %11 = call noalias ptr @wmem_alloc(ptr noundef %7, i64 noundef %10) #12
  store ptr %11, ptr %6, align 8
  %12 = load ptr, ptr %6, align 8
  %13 = load ptr, ptr %3, align 8
  %14 = load i32, ptr %4, align 4
  %15 = sext i32 %14 to i64
  %16 = call ptr @memcpy.inline(ptr noundef %12, ptr noundef %13, i64 noundef %15) #11
  %17 = load ptr, ptr %6, align 8
  %18 = load i32, ptr %4, align 4
  %19 = sext i32 %18 to i64
  %20 = getelementptr i8, ptr %17, i64 %19
  store i8 0, ptr %20, align 1
  %21 = load ptr, ptr %6, align 8
  %22 = call i64 @g_ascii_strtoull(ptr noundef %21, ptr noundef null, i32 noundef 10)
  %23 = trunc i64 %22 to i32
  store i32 %23, ptr %5, align 4
  %24 = load i32, ptr %5, align 4
  call void @llvm.lifetime.end.p0(i64 8, ptr %6) #11
  call void @llvm.lifetime.end.p0(i64 4, ptr %5) #11
  ret i32 %24
}

; Function Attrs: null_pointer_is_valid sspstrong uwtable
define internal zeroext i1 @dissect_clcc_parameter(ptr noundef %0, ptr noundef %1, ptr noundef %2, i32 noundef %3, i32 noundef %4, i16 noundef zeroext %5, ptr noundef %6, i32 noundef %7, i32 noundef %8, ptr noundef %9) #0 {
  %11 = alloca i1, align 1
  %12 = alloca ptr, align 8
  %13 = alloca ptr, align 8
  %14 = alloca ptr, align 8
  %15 = alloca i32, align 4
  %16 = alloca i32, align 4
  %17 = alloca i16, align 2
  %18 = alloca ptr, align 8
  %19 = alloca i32, align 4
  %20 = alloca i32, align 4
  %21 = alloca ptr, align 8
  %22 = alloca ptr, align 8
  %23 = alloca i32, align 4
  %24 = alloca i32, align 4
  store ptr %0, ptr %12, align 8
  store ptr %1, ptr %13, align 8
  store ptr %2, ptr %14, align 8
  store i32 %3, ptr %15, align 4
  store i32 %4, ptr %16, align 4
  store i16 %5, ptr %17, align 2
  store ptr %6, ptr %18, align 8
  store i32 %7, ptr %19, align 4
  store i32 %8, ptr %20, align 4
  store ptr %9, ptr %21, align 8
  call void @llvm.lifetime.start.p0(i64 8, ptr %22) #11
  call void @llvm.lifetime.start.p0(i64 4, ptr %23) #11
  %25 = load i32, ptr %16, align 4
  %26 = icmp eq i32 %25, 2
  br i1 %26, label %27, label %31

27:                                               ; preds = %10
  %28 = load i16, ptr %17, align 2
  %29 = zext i16 %28 to i32
  %30 = icmp eq i32 %29, 13
  br i1 %30, label %39, label %31

31:                                               ; preds = %27, %10
  %32 = load i32, ptr %16, align 4
  %33 = icmp eq i32 %32, 1
  br i1 %33, label %34, label %38

34:                                               ; preds = %31
  %35 = load i16, ptr %17, align 2
  %36 = zext i16 %35 to i32
  %37 = icmp eq i32 %36, 58
  br i1 %37, label %39, label %38

38:                                               ; preds = %34, %31
  store i1 false, ptr %11, align 1
  store i32 1, ptr %24, align 4
  br label %147

39:                                               ; preds = %34, %27
  %40 = load i32, ptr %19, align 4
  %41 = icmp ugt i32 %40, 8
  br i1 %41, label %42, label %43

42:                                               ; preds = %39
  store i1 false, ptr %11, align 1
  store i32 1, ptr %24, align 4
  br label %147

43:                                               ; preds = %39
  %44 = load i32, ptr %19, align 4
  switch i32 %44, label %146 [
    i32 0, label %45
    i32 1, label %56
    i32 2, label %67
    i32 3, label %78
    i32 4, label %89
    i32 5, label %100
    i32 6, label %107
    i32 7, label %128
    i32 8, label %135
  ]

45:                                               ; preds = %43
  %46 = load ptr, ptr %18, align 8
  %47 = load i32, ptr %20, align 4
  %48 = call i32 @get_uint_parameter(ptr noundef %46, i32 noundef %47)
  store i32 %48, ptr %23, align 4
  %49 = load ptr, ptr %14, align 8
  %50 = load i32, ptr @hf_clcc_id, align 4
  %51 = load ptr, ptr %12, align 8
  %52 = load i32, ptr %15, align 4
  %53 = load i32, ptr %20, align 4
  %54 = load i32, ptr %23, align 4
  %55 = call ptr @proto_tree_add_uint(ptr noundef %49, i32 noundef %50, ptr noundef %51, i32 noundef %52, i32 noundef %53, i32 noundef %54)
  br label %146

56:                                               ; preds = %43
  %57 = load ptr, ptr %18, align 8
  %58 = load i32, ptr %20, align 4
  %59 = call i32 @get_uint_parameter(ptr noundef %57, i32 noundef %58)
  store i32 %59, ptr %23, align 4
  %60 = load ptr, ptr %14, align 8
  %61 = load i32, ptr @hf_clcc_dir, align 4
  %62 = load ptr, ptr %12, align 8
  %63 = load i32, ptr %15, align 4
  %64 = load i32, ptr %20, align 4
  %65 = load i32, ptr %23, align 4
  %66 = call ptr @proto_tree_add_uint(ptr noundef %60, i32 noundef %61, ptr noundef %62, i32 noundef %63, i32 noundef %64, i32 noundef %65)
  br label %146

67:                                               ; preds = %43
  %68 = load ptr, ptr %18, align 8
  %69 = load i32, ptr %20, align 4
  %70 = call i32 @get_uint_parameter(ptr noundef %68, i32 noundef %69)
  store i32 %70, ptr %23, align 4
  %71 = load ptr, ptr %14, align 8
  %72 = load i32, ptr @hf_clcc_stat, align 4
  %73 = load ptr, ptr %12, align 8
  %74 = load i32, ptr %15, align 4
  %75 = load i32, ptr %20, align 4
  %76 = load i32, ptr %23, align 4
  %77 = call ptr @proto_tree_add_uint(ptr noundef %71, i32 noundef %72, ptr noundef %73, i32 noundef %74, i32 noundef %75, i32 noundef %76)
  br label %146

78:                                               ; preds = %43
  %79 = load ptr, ptr %18, align 8
  %80 = load i32, ptr %20, align 4
  %81 = call i32 @get_uint_parameter(ptr noundef %79, i32 noundef %80)
  store i32 %81, ptr %23, align 4
  %82 = load ptr, ptr %14, align 8
  %83 = load i32, ptr @hf_clcc_mode, align 4
  %84 = load ptr, ptr %12, align 8
  %85 = load i32, ptr %15, align 4
  %86 = load i32, ptr %20, align 4
  %87 = load i32, ptr %23, align 4
  %88 = call ptr @proto_tree_add_uint(ptr noundef %82, i32 noundef %83, ptr noundef %84, i32 noundef %85, i32 noundef %86, i32 noundef %87)
  br label %146

89:                                               ; preds = %43
  %90 = load ptr, ptr %18, align 8
  %91 = load i32, ptr %20, align 4
  %92 = call i32 @get_uint_parameter(ptr noundef %90, i32 noundef %91)
  store i32 %92, ptr %23, align 4
  %93 = load ptr, ptr %14, align 8
  %94 = load i32, ptr @hf_clcc_mpty, align 4
  %95 = load ptr, ptr %12, align 8
  %96 = load i32, ptr %15, align 4
  %97 = load i32, ptr %20, align 4
  %98 = load i32, ptr %23, align 4
  %99 = call ptr @proto_tree_add_uint(ptr noundef %93, i32 noundef %94, ptr noundef %95, i32 noundef %96, i32 noundef %97, i32 noundef %98)
  br label %146

100:                                              ; preds = %43
  %101 = load ptr, ptr %14, align 8
  %102 = load i32, ptr @hf_at_number, align 4
  %103 = load ptr, ptr %12, align 8
  %104 = load i32, ptr %15, align 4
  %105 = load i32, ptr %20, align 4
  %106 = call ptr @proto_tree_add_item(ptr noundef %101, i32 noundef %102, ptr noundef %103, i32 noundef %104, i32 noundef %105, i32 noundef 0)
  br label %146

107:                                              ; preds = %43
  %108 = load ptr, ptr %18, align 8
  %109 = load i32, ptr %20, align 4
  %110 = call i32 @get_uint_parameter(ptr noundef %108, i32 noundef %109)
  store i32 %110, ptr %23, align 4
  %111 = load ptr, ptr %14, align 8
  %112 = load i32, ptr @hf_at_type, align 4
  %113 = load ptr, ptr %12, align 8
  %114 = load i32, ptr %15, align 4
  %115 = load i32, ptr %20, align 4
  %116 = load i32, ptr %23, align 4
  %117 = call ptr @proto_tree_add_uint(ptr noundef %111, i32 noundef %112, ptr noundef %113, i32 noundef %114, i32 noundef %115, i32 noundef %116)
  store ptr %117, ptr %22, align 8
  %118 = load i32, ptr %23, align 4
  %119 = icmp ult i32 %118, 128
  br i1 %119, label %123, label %120

120:                                              ; preds = %107
  %121 = load i32, ptr %23, align 4
  %122 = icmp ugt i32 %121, 175
  br i1 %122, label %123, label %127

123:                                              ; preds = %120, %107
  %124 = load ptr, ptr %13, align 8
  %125 = load ptr, ptr %22, align 8
  %126 = call ptr @expert_add_info(ptr noundef %124, ptr noundef %125, ptr noundef @ei_at_type)
  br label %127

127:                                              ; preds = %123, %120
  br label %146

128:                                              ; preds = %43
  %129 = load ptr, ptr %14, align 8
  %130 = load i32, ptr @hf_at_alpha, align 4
  %131 = load ptr, ptr %12, align 8
  %132 = load i32, ptr %15, align 4
  %133 = load i32, ptr %20, align 4
  %134 = call ptr @proto_tree_add_item(ptr noundef %129, i32 noundef %130, ptr noundef %131, i32 noundef %132, i32 noundef %133, i32 noundef 0)
  br label %146

135:                                              ; preds = %43
  %136 = load ptr, ptr %18, align 8
  %137 = load i32, ptr %20, align 4
  %138 = call i32 @get_uint_parameter(ptr noundef %136, i32 noundef %137)
  store i32 %138, ptr %23, align 4
  %139 = load ptr, ptr %14, align 8
  %140 = load i32, ptr @hf_at_priority, align 4
  %141 = load ptr, ptr %12, align 8
  %142 = load i32, ptr %15, align 4
  %143 = load i32, ptr %20, align 4
  %144 = load i32, ptr %23, align 4
  %145 = call ptr @proto_tree_add_uint(ptr noundef %139, i32 noundef %140, ptr noundef %141, i32 noundef %142, i32 noundef %143, i32 noundef %144)
  br label %146

146:                                              ; preds = %43, %135, %128, %127, %100, %89, %78, %67, %56, %45
  store i1 true, ptr %11, align 1
  store i32 1, ptr %24, align 4
  br label %147

147:                                              ; preds = %146, %42, %38
  call void @llvm.lifetime.end.p0(i64 4, ptr %23) #11
  call void @llvm.lifetime.end.p0(i64 8, ptr %22) #11
  %148 = load i1, ptr %11, align 1
  ret i1 %148
}