; Function Attrs: null_pointer_is_valid sspstrong uwtable
define internal noundef zeroext i1 @dissect_clcc_parameter(ptr noundef %0, ptr noundef %1, ptr noundef %2, i32 noundef %3, i32 noundef %4, i16 noundef zeroext %5, ptr noundef readonly captures(none) %6, i32 noundef %7, i32 noundef %8, ptr readnone captures(none) %9) #0 {
  %11 = icmp eq i32 %4, 2
  %12 = icmp eq i16 %5, 13
  %or.cond = and i1 %11, %12
  br i1 %or.cond, label %17, label %13

13:                                               ; preds = %10
  %14 = icmp ne i32 %4, 1
  %15 = icmp ne i16 %5, 58
  %or.cond5.not77 = or i1 %14, %15
  %16 = icmp ugt i32 %7, 8
  %or.cond75 = or i1 %or.cond5.not77, %16
  br i1 %or.cond75, label %119, label %18

17:                                               ; preds = %10
  %.old = icmp ugt i32 %7, 8
  br i1 %.old, label %119, label %18

18:                                               ; preds = %13, %17
  switch i32 %7, label %default.unreachable [
    i32 0, label %19
    i32 1, label %32
    i32 2, label %45
    i32 3, label %58
    i32 4, label %71
    i32 5, label %84
    i32 6, label %87
    i32 7, label %103
    i32 8, label %106
  ]

19:                                               ; preds = %18
  %20 = tail call ptr @wmem_packet_scope()
  %21 = add i32 %8, 1
  %22 = sext i32 %21 to i64
  %23 = tail call noalias ptr @wmem_alloc(ptr noundef %20, i64 noundef %22) #11
  %24 = sext i32 %8 to i64
  %25 = icmp ne i32 %21, -1
  tail call void @llvm.assume(i1 %25)
  %26 = tail call ptr @__memcpy_chk(ptr noundef %23, ptr noundef readonly %6, i64 noundef range(i64 -2147483648, 4294967296) %24, i64 noundef %22) #10, !alias.scope !109
  %27 = getelementptr i8, ptr %23, i64 %24
  store i8 0, ptr %27, align 1
  %28 = tail call i64 @g_ascii_strtoull(ptr noundef %23, ptr noundef null, i32 noundef 10)
  %29 = trunc i64 %28 to i32
  %30 = load i32, ptr @hf_clcc_id, align 4
  %31 = tail call ptr @proto_tree_add_uint(ptr noundef %2, i32 noundef %30, ptr noundef %0, i32 noundef %3, i32 noundef %8, i32 noundef %29)
  br label %119

32:                                               ; preds = %18
  %33 = tail call ptr @wmem_packet_scope()
  %34 = add i32 %8, 1
  %35 = sext i32 %34 to i64
  %36 = tail call noalias ptr @wmem_alloc(ptr noundef %33, i64 noundef %35) #11
  %37 = sext i32 %8 to i64
  %38 = icmp ne i32 %34, -1
  tail call void @llvm.assume(i1 %38)
  %39 = tail call ptr @__memcpy_chk(ptr noundef %36, ptr noundef readonly %6, i64 noundef range(i64 -2147483648, 4294967296) %37, i64 noundef %35) #10, !alias.scope !113
  %40 = getelementptr i8, ptr %36, i64 %37
  store i8 0, ptr %40, align 1
  %41 = tail call i64 @g_ascii_strtoull(ptr noundef %36, ptr noundef null, i32 noundef 10)
  %42 = trunc i64 %41 to i32
  %43 = load i32, ptr @hf_clcc_dir, align 4
  %44 = tail call ptr @proto_tree_add_uint(ptr noundef %2, i32 noundef %43, ptr noundef %0, i32 noundef %3, i32 noundef %8, i32 noundef %42)
  br label %119

45:                                               ; preds = %18
  %46 = tail call ptr @wmem_packet_scope()
  %47 = add i32 %8, 1
  %48 = sext i32 %47 to i64
  %49 = tail call noalias ptr @wmem_alloc(ptr noundef %46, i64 noundef %48) #11
  %50 = sext i32 %8 to i64
  %51 = icmp ne i32 %47, -1
  tail call void @llvm.assume(i1 %51)
  %52 = tail call ptr @__memcpy_chk(ptr noundef %49, ptr noundef readonly %6, i64 noundef range(i64 -2147483648, 4294967296) %50, i64 noundef %48) #10, !alias.scope !117
  %53 = getelementptr i8, ptr %49, i64 %50
  store i8 0, ptr %53, align 1
  %54 = tail call i64 @g_ascii_strtoull(ptr noundef %49, ptr noundef null, i32 noundef 10)
  %55 = trunc i64 %54 to i32
  %56 = load i32, ptr @hf_clcc_stat, align 4
  %57 = tail call ptr @proto_tree_add_uint(ptr noundef %2, i32 noundef %56, ptr noundef %0, i32 noundef %3, i32 noundef %8, i32 noundef %55)
  br label %119

58:                                               ; preds = %18
  %59 = tail call ptr @wmem_packet_scope()
  %60 = add i32 %8, 1
  %61 = sext i32 %60 to i64
  %62 = tail call noalias ptr @wmem_alloc(ptr noundef %59, i64 noundef %61) #11
  %63 = sext i32 %8 to i64
  %64 = icmp ne i32 %60, -1
  tail call void @llvm.assume(i1 %64)
  %65 = tail call ptr @__memcpy_chk(ptr noundef %62, ptr noundef readonly %6, i64 noundef range(i64 -2147483648, 4294967296) %63, i64 noundef %61) #10, !alias.scope !121
  %66 = getelementptr i8, ptr %62, i64 %63
  store i8 0, ptr %66, align 1
  %67 = tail call i64 @g_ascii_strtoull(ptr noundef %62, ptr noundef null, i32 noundef 10)
  %68 = trunc i64 %67 to i32
  %69 = load i32, ptr @hf_clcc_mode, align 4
  %70 = tail call ptr @proto_tree_add_uint(ptr noundef %2, i32 noundef %69, ptr noundef %0, i32 noundef %3, i32 noundef %8, i32 noundef %68)
  br label %119

71:                                               ; preds = %18
  %72 = tail call ptr @wmem_packet_scope()
  %73 = add i32 %8, 1
  %74 = sext i32 %73 to i64
  %75 = tail call noalias ptr @wmem_alloc(ptr noundef %72, i64 noundef %74) #11
  %76 = sext i32 %8 to i64
  %77 = icmp ne i32 %73, -1
  tail call void @llvm.assume(i1 %77)
  %78 = tail call ptr @__memcpy_chk(ptr noundef %75, ptr noundef readonly %6, i64 noundef range(i64 -2147483648, 4294967296) %76, i64 noundef %74) #10, !alias.scope !125
  %79 = getelementptr i8, ptr %75, i64 %76
  store i8 0, ptr %79, align 1
  %80 = tail call i64 @g_ascii_strtoull(ptr noundef %75, ptr noundef null, i32 noundef 10)
  %81 = trunc i64 %80 to i32
  %82 = load i32, ptr @hf_clcc_mpty, align 4
  %83 = tail call ptr @proto_tree_add_uint(ptr noundef %2, i32 noundef %82, ptr noundef %0, i32 noundef %3, i32 noundef %8, i32 noundef %81)
  br label %119

84:                                               ; preds = %18
  %85 = load i32, ptr @hf_at_number, align 4
  %86 = tail call ptr @proto_tree_add_item(ptr noundef %2, i32 noundef %85, ptr noundef %0, i32 noundef %3, i32 noundef %8, i32 noundef 0)
  br label %119

87:                                               ; preds = %18
  %88 = tail call ptr @wmem_packet_scope()
  %89 = add i32 %8, 1
  %90 = sext i32 %89 to i64
  %91 = tail call noalias ptr @wmem_alloc(ptr noundef %88, i64 noundef %90) #11
  %92 = sext i32 %8 to i64
  %93 = icmp ne i32 %89, -1
  tail call void @llvm.assume(i1 %93)
  %94 = tail call ptr @__memcpy_chk(ptr noundef %91, ptr noundef readonly %6, i64 noundef range(i64 -2147483648, 4294967296) %92, i64 noundef %90) #10, !alias.scope !129
  %95 = getelementptr i8, ptr %91, i64 %92
  store i8 0, ptr %95, align 1
  %96 = tail call i64 @g_ascii_strtoull(ptr noundef %91, ptr noundef null, i32 noundef 10)
  %97 = trunc i64 %96 to i32
  %98 = load i32, ptr @hf_at_type, align 4
  %99 = tail call ptr @proto_tree_add_uint(ptr noundef %2, i32 noundef %98, ptr noundef %0, i32 noundef %3, i32 noundef %8, i32 noundef %97)
  %100 = add i32 %97, -176
  %or.cond7 = icmp ult i32 %100, -48
  br i1 %or.cond7, label %101, label %119

101:                                              ; preds = %87
  %102 = tail call ptr @expert_add_info(ptr noundef %1, ptr noundef %99, ptr noundef nonnull @ei_at_type)
  br label %119

103:                                              ; preds = %18
  %104 = load i32, ptr @hf_at_alpha, align 4
  %105 = tail call ptr @proto_tree_add_item(ptr noundef %2, i32 noundef %104, ptr noundef %0, i32 noundef %3, i32 noundef %8, i32 noundef 0)
  br label %119

106:                                              ; preds = %18
  %107 = tail call ptr @wmem_packet_scope()
  %108 = add i32 %8, 1
  %109 = sext i32 %108 to i64
  %110 = tail call noalias ptr @wmem_alloc(ptr noundef %107, i64 noundef %109) #11
  %111 = sext i32 %8 to i64
  %112 = icmp ne i32 %108, -1
  tail call void @llvm.assume(i1 %112)
  %113 = tail call ptr @__memcpy_chk(ptr noundef %110, ptr noundef readonly %6, i64 noundef range(i64 -2147483648, 4294967296) %111, i64 noundef %109) #10, !alias.scope !133
  %114 = getelementptr i8, ptr %110, i64 %111
  store i8 0, ptr %114, align 1
  %115 = tail call i64 @g_ascii_strtoull(ptr noundef %110, ptr noundef null, i32 noundef 10)
  %116 = trunc i64 %115 to i32
  %117 = load i32, ptr @hf_at_priority, align 4
  %118 = tail call ptr @proto_tree_add_uint(ptr noundef %2, i32 noundef %117, ptr noundef %0, i32 noundef %3, i32 noundef %8, i32 noundef %116)
  br label %119

default.unreachable:                              ; preds = %18
  unreachable

119:                                              ; preds = %19, %32, %45, %58, %71, %84, %103, %106, %87, %101, %17, %13
  %.0 = phi i1 [ false, %13 ], [ false, %17 ], [ true, %101 ], [ true, %87 ], [ true, %106 ], [ true, %103 ], [ true, %84 ], [ true, %71 ], [ true, %58 ], [ true, %45 ], [ true, %32 ], [ true, %19 ]
  ret i1 %.0
}